target datalayout = "e-m:e-p270:32:32-p271:32:32-p272:64:64-i64:64-i128:128-f80:128-n8:16:32:64-S128"
target triple = "x86_64-pc-linux-gnu"

%"struct.faiss::ScalarQuantizer::SQuantizer" = type { ptr }
%"struct.faiss::(anonymous namespace)::QuantizerTemplate.3" = type { %"struct.faiss::ScalarQuantizer::SQuantizer", i64, ptr, ptr }
%"struct.faiss::ScalarQuantizer::SQDistanceComputer" = type { %"struct.faiss::FlatCodesDistanceComputer", ptr }
%"struct.faiss::FlatCodesDistanceComputer" = type { %"struct.faiss::DistanceComputer", ptr, i64 }
%"struct.faiss::DistanceComputer" = type { ptr }
%"struct.faiss::(anonymous namespace)::DCTemplate.23" = type { %"struct.faiss::ScalarQuantizer::SQDistanceComputer", %"struct.faiss::(anonymous namespace)::QuantizerTemplate.3" }
%"struct.faiss::(anonymous namespace)::SimilarityIP" = type <{ ptr, ptr, float, [4 x i8] }>
%"struct.faiss::InvertedListScanner" = type { ptr, i64, i8, i8, ptr, i64 }
%"struct.faiss::(anonymous namespace)::IVFSQScannerIP.63" = type { %"struct.faiss::InvertedListScanner", %"struct.faiss::(anonymous namespace)::DCTemplate.23", i8, float }

; Function Attrs: mustprogress nounwind uwtable
define internal void @_ZN5faiss12_GLOBAL__N_112SimilarityIPILi1EEC2EPKf(ptr noundef nonnull align 8 dereferenceable(20) %0, ptr noundef %1) unnamed_addr #1 align 2 {
  %3 = alloca ptr, align 8
  %4 = alloca ptr, align 8
  store ptr %0, ptr %3, align 8
  store ptr %1, ptr %4, align 8
  %5 = load ptr, ptr %3, align 8
  %6 = getelementptr inbounds %"struct.faiss::(anonymous namespace)::SimilarityIP", ptr %5, i32 0, i32 0
  %7 = load ptr, ptr %4, align 8
  store ptr %7, ptr %6, align 8
  ret void
}

; Function Attrs: mustprogress uwtable
define internal noundef float @_ZNK5faiss12_GLOBAL__N_110DCTemplateINS0_17QuantizerTemplateINS0_9Codec6bitELb0ELi1EEENS0_12SimilarityIPILi1EEELi1EE16compute_distanceEPKfPKh(ptr noundef nonnull align 8 dereferenceable(64) %0, ptr noundef %1, ptr noundef %2) #0 align 2 {
  %4 = alloca ptr, align 8
  %5 = alloca float, align 4
  %6 = alloca ptr, align 8
  %7 = alloca ptr, align 8
  %8 = alloca ptr, align 8
  %9 = alloca i32, align 4
  %10 = alloca i8, align 1
  %11 = alloca ptr, align 8
  %12 = alloca ptr, align 8
  %13 = alloca i32, align 4
  %14 = alloca float, align 4
  %15 = alloca ptr, align 8
  %16 = alloca ptr, align 8
  %17 = alloca ptr, align 8
  %18 = alloca %"struct.faiss::(anonymous namespace)::SimilarityIP", align 8
  %19 = alloca i64, align 8
  %20 = alloca float, align 4
  store ptr %0, ptr %15, align 8
  store ptr %1, ptr %16, align 8
  store ptr %2, ptr %17, align 8
  %21 = load ptr, ptr %15, align 8
  %22 = load ptr, ptr %16, align 8
  call void @_ZN5faiss12_GLOBAL__N_112SimilarityIPILi1EEC2EPKf(ptr noundef nonnull align 8 dereferenceable(20) %18, ptr noundef %22)
  store ptr %18, ptr %7, align 8
  %23 = load ptr, ptr %7, align 8
  %24 = getelementptr inbounds %"struct.faiss::(anonymous namespace)::SimilarityIP", ptr %23, i32 0, i32 2
  store float 0.000000e+00, ptr %24, align 8
  %25 = load ptr, ptr %23, align 8
  %26 = getelementptr inbounds %"struct.faiss::(anonymous namespace)::SimilarityIP", ptr %23, i32 0, i32 1
  store ptr %25, ptr %26, align 8
  store i64 0, ptr %19, align 8
  br label %27

27:                                               ; preds = %125, %3
  %28 = load i64, ptr %19, align 8
  %29 = getelementptr inbounds %"struct.faiss::(anonymous namespace)::DCTemplate.23", ptr %21, i32 0, i32 1
  %30 = getelementptr inbounds %"struct.faiss::(anonymous namespace)::QuantizerTemplate.3", ptr %29, i32 0, i32 1
  %31 = load i64, ptr %30, align 8
  %32 = icmp ult i64 %28, %31
  br i1 %32, label %33, label %128

33:                                               ; preds = %27
  %34 = getelementptr inbounds %"struct.faiss::(anonymous namespace)::DCTemplate.23", ptr %21, i32 0, i32 1
  %35 = load ptr, ptr %17, align 8
  %36 = load i64, ptr %19, align 8
  %37 = trunc i64 %36 to i32
  store ptr %34, ptr %11, align 8
  store ptr %35, ptr %12, align 8
  store i32 %37, ptr %13, align 4
  %38 = load ptr, ptr %11, align 8
  %39 = load ptr, ptr %12, align 8
  %40 = load i32, ptr %13, align 4
  store ptr %39, ptr %8, align 8
  store i32 %40, ptr %9, align 4
  %41 = load i32, ptr %9, align 4
  %42 = ashr i32 %41, 2
  %43 = mul nsw i32 %42, 3
  %44 = load ptr, ptr %8, align 8
  %45 = sext i32 %43 to i64
  %46 = getelementptr inbounds i8, ptr %44, i64 %45
  store ptr %46, ptr %8, align 8
  %47 = load i32, ptr %9, align 4
  %48 = and i32 %47, 3
  switch i32 %48, label %95 [
    i32 0, label %49
    i32 1, label %55
    i32 2, label %71
    i32 3, label %88
  ]

49:                                               ; preds = %33
  %50 = load ptr, ptr %8, align 8
  %51 = load i8, ptr %50, align 1
  %52 = zext i8 %51 to i32
  %53 = and i32 %52, 63
  %54 = trunc i32 %53 to i8
  store i8 %54, ptr %10, align 1
  br label %95

55:                                               ; preds = %33
  %56 = load ptr, ptr %8, align 8
  %57 = load i8, ptr %56, align 1
  %58 = zext i8 %57 to i32
  %59 = ashr i32 %58, 6
  %60 = trunc i32 %59 to i8
  store i8 %60, ptr %10, align 1
  %61 = load ptr, ptr %8, align 8
  %62 = getelementptr inbounds i8, ptr %61, i64 1
  %63 = load i8, ptr %62, align 1
  %64 = zext i8 %63 to i32
  %65 = and i32 %64, 15
  %66 = shl i32 %65, 2
  %67 = load i8, ptr %10, align 1
  %68 = zext i8 %67 to i32
  %69 = or i32 %68, %66
  %70 = trunc i32 %69 to i8
  store i8 %70, ptr %10, align 1
  br label %95

71:                                               ; preds = %33
  %72 = load ptr, ptr %8, align 8
  %73 = getelementptr inbounds i8, ptr %72, i64 1
  %74 = load i8, ptr %73, align 1
  %75 = zext i8 %74 to i32
  %76 = ashr i32 %75, 4
  %77 = trunc i32 %76 to i8
  store i8 %77, ptr %10, align 1
  %78 = load ptr, ptr %8, align 8
  %79 = getelementptr inbounds i8, ptr %78, i64 2
  %80 = load i8, ptr %79, align 1
  %81 = zext i8 %80 to i32
  %82 = and i32 %81, 3
  %83 = shl i32 %82, 4
  %84 = load i8, ptr %10, align 1
  %85 = zext i8 %84 to i32
  %86 = or i32 %85, %83
  %87 = trunc i32 %86 to i8
  store i8 %87, ptr %10, align 1
  br label %95

88:                                               ; preds = %33
  %89 = load ptr, ptr %8, align 8
  %90 = getelementptr inbounds i8, ptr %89, i64 2
  %91 = load i8, ptr %90, align 1
  %92 = zext i8 %91 to i32
  %93 = ashr i32 %92, 2
  %94 = trunc i32 %93 to i8
  store i8 %94, ptr %10, align 1
  br label %95

95:                                               ; preds = %88, %71, %55, %49, %33
  %96 = load i8, ptr %10, align 1
  %97 = zext i8 %96 to i32
  %98 = sitofp i32 %97 to float
  %99 = fadd float %98, 5.000000e-01
  %100 = fdiv float %99, 6.300000e+01
  store float %100, ptr %14, align 4
  %101 = getelementptr inbounds %"struct.faiss::(anonymous namespace)::QuantizerTemplate.3", ptr %38, i32 0, i32 2
  %102 = load ptr, ptr %101, align 8
  %103 = load i32, ptr %13, align 4
  %104 = sext i32 %103 to i64
  %105 = getelementptr inbounds float, ptr %102, i64 %104
  %106 = load float, ptr %105, align 4
  %107 = load float, ptr %14, align 4
  %108 = getelementptr inbounds %"struct.faiss::(anonymous namespace)::QuantizerTemplate.3", ptr %38, i32 0, i32 3
  %109 = load ptr, ptr %108, align 8
  %110 = load i32, ptr %13, align 4
  %111 = sext i32 %110 to i64
  %112 = getelementptr inbounds float, ptr %109, i64 %111
  %113 = load float, ptr %112, align 4
  %114 = call noundef float @llvm.fmuladd.f32(float %107, float %113, float %106)
  store float %114, ptr %20, align 4
  %115 = load float, ptr %20, align 4
  store ptr %18, ptr %4, align 8
  store float %115, ptr %5, align 4
  %116 = load ptr, ptr %4, align 8
  %117 = getelementptr inbounds %"struct.faiss::(anonymous namespace)::SimilarityIP", ptr %116, i32 0, i32 1
  %118 = load ptr, ptr %117, align 8
  %119 = getelementptr inbounds float, ptr %118, i32 1
  store ptr %119, ptr %117, align 8
  %120 = load float, ptr %118, align 4
  %121 = load float, ptr %5, align 4
  %122 = getelementptr inbounds %"struct.faiss::(anonymous namespace)::SimilarityIP", ptr %116, i32 0, i32 2
  %123 = load float, ptr %122, align 8
  %124 = call float @llvm.fmuladd.f32(float %120, float %121, float %123)
  store float %124, ptr %122, align 8
  br label %125

125:                                              ; preds = %95
  %126 = load i64, ptr %19, align 8
  %127 = add i64 %126, 1
  store i64 %127, ptr %19, align 8
  br label %27, !llvm.loop !68

128:                                              ; preds = %27
  store ptr %18, ptr %6, align 8
  %129 = load ptr, ptr %6, align 8
  %130 = getelementptr inbounds %"struct.faiss::(anonymous namespace)::SimilarityIP", ptr %129, i32 0, i32 2
  %131 = load float, ptr %130, align 8
  ret float %131
}

; Function Attrs: mustprogress uwtable
define internal noundef float @_ZNK5faiss12_GLOBAL__N_110DCTemplateINS0_17QuantizerTemplateINS0_9Codec6bitELb0ELi1EEENS0_12SimilarityIPILi1EEELi1EE13query_to_codeEPKh(ptr noundef nonnull align 8 dereferenceable(64) %0, ptr noundef %1) unnamed_addr #0 align 2 {
  %3 = alloca ptr, align 8
  %4 = alloca ptr, align 8
  store ptr %0, ptr %3, align 8
  store ptr %1, ptr %4, align 8
  %5 = load ptr, ptr %3, align 8
  %6 = getelementptr inbounds %"struct.faiss::ScalarQuantizer::SQDistanceComputer", ptr %5, i32 0, i32 1
  %7 = load ptr, ptr %6, align 8
  %8 = load ptr, ptr %4, align 8
  %9 = call noundef float @_ZNK5faiss12_GLOBAL__N_110DCTemplateINS0_17QuantizerTemplateINS0_9Codec6bitELb0ELi1EEENS0_12SimilarityIPILi1EEELi1EE16compute_distanceEPKfPKh(ptr noundef nonnull align 8 dereferenceable(64) %5, ptr noundef %7, ptr noundef %8)
  ret float %9
}

; Function Attrs: mustprogress uwtable
define internal void @_ZNK5faiss12_GLOBAL__N_114IVFSQScannerIPINS0_10DCTemplateINS0_17QuantizerTemplateINS0_9Codec6bitELb0ELi1EEENS0_12SimilarityIPILi1EEELi1EEELi1EE16scan_codes_rangeEmPKhPKlfRNS_16RangeQueryResultE(ptr noundef nonnull align 8 dereferenceable(112) %0, i64 noundef %1, ptr noundef %2, ptr noundef %3, float noundef %4, ptr noundef nonnull align 8 dereferenceable(24) %5) unnamed_addr #0 align 2 {
  %7 = alloca ptr, align 8
  %8 = alloca i64, align 8
  %9 = alloca ptr, align 8
  %10 = alloca ptr, align 8
  %11 = alloca float, align 4
  %12 = alloca ptr, align 8
  %13 = alloca i64, align 8
  %14 = alloca float, align 4
  %15 = alloca i64, align 8
  store ptr %0, ptr %7, align 8
  store i64 %1, ptr %8, align 8
  store ptr %2, ptr %9, align 8
  store ptr %3, ptr %10, align 8
  store float %4, ptr %11, align 4
  store ptr %5, ptr %12, align 8
  %16 = load ptr, ptr %7, align 8
  store i64 0, ptr %13, align 8
  br label %17

17:                                               ; preds = %64, %6
  %18 = load i64, ptr %13, align 8
  %19 = load i64, ptr %8, align 8
  %20 = icmp ult i64 %18, %19
  br i1 %20, label %21, label %71

21:                                               ; preds = %17
  %22 = getelementptr inbounds %"struct.faiss::InvertedListScanner", ptr %16, i32 0, i32 4
  %23 = load ptr, ptr %22, align 8
  %24 = load ptr, ptr %10, align 8
  %25 = load i64, ptr %13, align 8
  %26 = getelementptr inbounds i64, ptr %24, i64 %25
  %27 = load i64, ptr %26, align 8
  %28 = load ptr, ptr %23, align 8
  %29 = getelementptr inbounds ptr, ptr %28, i64 0
  %30 = load ptr, ptr %29, align 8
  %31 = call noundef zeroext i1 %30(ptr noundef nonnull align 8 dereferenceable(8) %23, i64 noundef %27)
  br i1 %31, label %33, label %32

32:                                               ; preds = %21
  br label %64

33:                                               ; preds = %21
  %34 = getelementptr inbounds %"struct.faiss::(anonymous namespace)::IVFSQScannerIP.63", ptr %16, i32 0, i32 3
  %35 = load float, ptr %34, align 4
  %36 = getelementptr inbounds %"struct.faiss::(anonymous namespace)::IVFSQScannerIP.63", ptr %16, i32 0, i32 1
  %37 = load ptr, ptr %9, align 8
  %38 = call noundef float @_ZNK5faiss12_GLOBAL__N_110DCTemplateINS0_17QuantizerTemplateINS0_9Codec6bitELb0ELi1EEENS0_12SimilarityIPILi1EEELi1EE13query_to_codeEPKh(ptr noundef nonnull align 8 dereferenceable(64) %36, ptr noundef %37)
  %39 = fadd float %35, %38
  store float %39, ptr %14, align 4
  %40 = load float, ptr %14, align 4
  %41 = load float, ptr %11, align 4
  %42 = fcmp ogt float %40, %41
  br i1 %42, label %43, label %63

43:                                               ; preds = %33
  %44 = getelementptr inbounds %"struct.faiss::InvertedListScanner", ptr %16, i32 0, i32 3
  %45 = load i8, ptr %44, align 1
  %46 = trunc i8 %45 to i1
  br i1 %46, label %47, label %53

47:                                               ; preds = %43
  %48 = getelementptr inbounds %"struct.faiss::InvertedListScanner", ptr %16, i32 0, i32 1
  %49 = load i64, ptr %48, align 8
  %50 = shl i64 %49, 32
  %51 = load i64, ptr %13, align 8
  %52 = or i64 %50, %51
  br label %58

53:                                               ; preds = %43
  %54 = load ptr, ptr %10, align 8
  %55 = load i64, ptr %13, align 8
  %56 = getelementptr inbounds i64, ptr %54, i64 %55
  %57 = load i64, ptr %56, align 8
  br label %58

58:                                               ; preds = %53, %47
  %59 = phi i64 [ %52, %47 ], [ %57, %53 ]
  store i64 %59, ptr %15, align 8
  %60 = load ptr, ptr %12, align 8
  %61 = load float, ptr %14, align 4
  %62 = load i64, ptr %15, align 8
  call void @_ZN5faiss16RangeQueryResult3addEfl(ptr noundef nonnull align 8 dereferenceable(24) %60, float noundef %61, i64 noundef %62)
  br label %63

63:                                               ; preds = %58, %33
  br label %64

64:                                               ; preds = %63, %32
  %65 = load i64, ptr %13, align 8
  %66 = add i64 %65, 1
  store i64 %66, ptr %13, align 8
  %67 = getelementptr inbounds %"struct.faiss::InvertedListScanner", ptr %16, i32 0, i32 5
  %68 = load i64, ptr %67, align 8
  %69 = load ptr, ptr %9, align 8
  %70 = getelementptr inbounds i8, ptr %69, i64 %68
  store ptr %70, ptr %9, align 8
  br label %17, !llvm.loop !154

71:                                               ; preds = %17
  ret void
}