; Function Attrs: mustprogress uwtable
define internal void @_ZNK5faiss12_GLOBAL__N_114IVFSQScannerIPINS0_10DCTemplateINS0_17QuantizerTemplateINS0_9Codec6bitELb0ELi1EEENS0_12SimilarityIPILi1EEELi1EEELi1EE16scan_codes_rangeEmPKhPKlfRNS_16RangeQueryResultE(ptr nocapture noundef nonnull readonly align 8 dereferenceable(112) %0, i64 noundef %1, ptr nocapture noundef readonly %2, ptr nocapture noundef readonly %3, float noundef %4, ptr noundef nonnull align 8 dereferenceable(24) %5) unnamed_addr #0 align 2 {
  %.not21 = icmp eq i64 %1, 0
  br i1 %.not21, label %._crit_edge, label %.lr.ph

.lr.ph:                                           ; preds = %6
  %7 = getelementptr inbounds i8, ptr %0, i64 24
  %8 = getelementptr inbounds i8, ptr %0, i64 108
  %9 = getelementptr inbounds i8, ptr %0, i64 80
  %10 = getelementptr inbounds i8, ptr %0, i64 64
  %11 = getelementptr inbounds i8, ptr %0, i64 88
  %12 = getelementptr inbounds i8, ptr %0, i64 96
  %13 = getelementptr inbounds i8, ptr %0, i64 17
  %14 = getelementptr inbounds i8, ptr %0, i64 8
  %15 = getelementptr inbounds i8, ptr %0, i64 32
  br label %16

16:                                               ; preds = %.lr.ph, %87
  %.019 = phi ptr [ %2, %.lr.ph ], [ %90, %87 ]
  %.01517 = phi i64 [ 0, %.lr.ph ], [ %88, %87 ]
  %17 = load ptr, ptr %7, align 8
  %18 = getelementptr inbounds i64, ptr %3, i64 %.01517
  %19 = load i64, ptr %18, align 8
  %20 = load ptr, ptr %17, align 8
  %21 = load ptr, ptr %20, align 8
  %22 = tail call noundef zeroext i1 %21(ptr noundef nonnull align 8 dereferenceable(8) %17, i64 noundef %19)
  br i1 %22, label %23, label %87

23:                                               ; preds = %16
  %24 = load float, ptr %8, align 4
  %25 = load i64, ptr %9, align 8
  %.not.i.i = icmp eq i64 %25, 0
  br i1 %.not.i.i, label %_ZNK5faiss12_GLOBAL__N_110DCTemplateINS0_17QuantizerTemplateINS0_9Codec6bitELb0ELi1EEENS0_12SimilarityIPILi1EEELi1EE13query_to_codeEPKh.exit, label %.lr.ph.i.i

.lr.ph.i.i:                                       ; preds = %23
  %26 = load ptr, ptr %10, align 8
  %27 = load ptr, ptr %11, align 8
  %28 = load ptr, ptr %12, align 8
  br label %29

29:                                               ; preds = %60, %.lr.ph.i.i
  %.033.i.i = phi i64 [ 0, %.lr.ph.i.i ], [ %73, %60 ]
  %.sroa.5.032.i.i = phi float [ 0.000000e+00, %.lr.ph.i.i ], [ %72, %60 ]
  %.sroa.2.031.i.i = phi ptr [ %26, %.lr.ph.i.i ], [ %70, %60 ]
  %30 = trunc i64 %.033.i.i to i32
  %31 = ashr i32 %30, 2
  %32 = mul nsw i32 %31, 3
  %33 = sext i32 %32 to i64
  %34 = getelementptr inbounds i8, ptr %.019, i64 %33
  %35 = and i32 %30, 3
  switch i32 %35, label %default.unreachable [
    i32 0, label %36
    i32 1, label %39
    i32 2, label %47
    i32 3, label %56
  ]

36:                                               ; preds = %29
  %37 = load i8, ptr %34, align 1
  %38 = and i8 %37, 63
  br label %60

39:                                               ; preds = %29
  %40 = load i8, ptr %34, align 1
  %41 = lshr i8 %40, 6
  %42 = getelementptr inbounds i8, ptr %34, i64 1
  %43 = load i8, ptr %42, align 1
  %44 = shl i8 %43, 2
  %45 = and i8 %44, 60
  %46 = or disjoint i8 %45, %41
  br label %60

47:                                               ; preds = %29
  %48 = getelementptr inbounds i8, ptr %34, i64 1
  %49 = load i8, ptr %48, align 1
  %50 = lshr i8 %49, 4
  %51 = getelementptr inbounds i8, ptr %34, i64 2
  %52 = load i8, ptr %51, align 1
  %53 = shl i8 %52, 4
  %54 = and i8 %53, 48
  %55 = or disjoint i8 %54, %50
  br label %60

56:                                               ; preds = %29
  %57 = getelementptr inbounds i8, ptr %34, i64 2
  %58 = load i8, ptr %57, align 1
  %59 = lshr i8 %58, 2
  br label %60

default.unreachable:                              ; preds = %29
  unreachable

60:                                               ; preds = %56, %47, %39, %36
  %.028.i.i = phi i8 [ %59, %56 ], [ %55, %47 ], [ %46, %39 ], [ %38, %36 ]
  %61 = uitofp i8 %.028.i.i to float
  %62 = fadd float %61, 5.000000e-01
  %63 = fdiv float %62, 6.300000e+01
  %sext.i.i = shl i64 %.033.i.i, 32
  %64 = ashr exact i64 %sext.i.i, 32
  %65 = getelementptr inbounds float, ptr %27, i64 %64
  %66 = load float, ptr %65, align 4
  %67 = getelementptr inbounds float, ptr %28, i64 %64
  %68 = load float, ptr %67, align 4
  %69 = tail call noundef float @llvm.fmuladd.f32(float %63, float %68, float %66)
  %70 = getelementptr inbounds i8, ptr %.sroa.2.031.i.i, i64 4
  %71 = load float, ptr %.sroa.2.031.i.i, align 4
  %72 = tail call float @llvm.fmuladd.f32(float %71, float %69, float %.sroa.5.032.i.i)
  %73 = add nuw i64 %.033.i.i, 1
  %exitcond.not.i.i = icmp eq i64 %73, %25
  br i1 %exitcond.not.i.i, label %_ZNK5faiss12_GLOBAL__N_110DCTemplateINS0_17QuantizerTemplateINS0_9Codec6bitELb0ELi1EEENS0_12SimilarityIPILi1EEELi1EE13query_to_codeEPKh.exit, label %29, !llvm.loop !67

_ZNK5faiss12_GLOBAL__N_110DCTemplateINS0_17QuantizerTemplateINS0_9Codec6bitELb0ELi1EEENS0_12SimilarityIPILi1EEELi1EE13query_to_codeEPKh.exit: ; preds = %60, %23
  %.sroa.5.0.lcssa.i.i = phi float [ 0.000000e+00, %23 ], [ %72, %60 ]
  %74 = fadd float %24, %.sroa.5.0.lcssa.i.i
  %75 = fcmp ogt float %74, %4
  br i1 %75, label %76, label %87

76:                                               ; preds = %_ZNK5faiss12_GLOBAL__N_110DCTemplateINS0_17QuantizerTemplateINS0_9Codec6bitELb0ELi1EEENS0_12SimilarityIPILi1EEELi1EE13query_to_codeEPKh.exit
  %77 = load i8, ptr %13, align 1
  %78 = and i8 %77, 1
  %.not = icmp eq i8 %78, 0
  br i1 %.not, label %83, label %79

79:                                               ; preds = %76
  %80 = load i64, ptr %14, align 8
  %81 = shl i64 %80, 32
  %82 = or i64 %81, %.01517
  br label %85

83:                                               ; preds = %76
  %84 = load i64, ptr %18, align 8
  br label %85

85:                                               ; preds = %83, %79
  %86 = phi i64 [ %82, %79 ], [ %84, %83 ]
  tail call void @_ZN5faiss16RangeQueryResult3addEfl(ptr noundef nonnull align 8 dereferenceable(24) %5, float noundef %74, i64 noundef %86)
  br label %87

87:                                               ; preds = %_ZNK5faiss12_GLOBAL__N_110DCTemplateINS0_17QuantizerTemplateINS0_9Codec6bitELb0ELi1EEENS0_12SimilarityIPILi1EEELi1EE13query_to_codeEPKh.exit, %85, %16
  %88 = add nuw i64 %.01517, 1
  %89 = load i64, ptr %15, align 8
  %90 = getelementptr inbounds i8, ptr %.019, i64 %89
  %exitcond.not = icmp eq i64 %88, %1
  br i1 %exitcond.not, label %._crit_edge, label %16, !llvm.loop !153

._crit_edge:                                      ; preds = %87, %6
  ret void
}